Certificate:
    Data:
        Version: 3 (0x2)
        Serial Number:
            c3:12:d9:32:1f:05:38:4c
    Signature Algorithm: sha256WithRSAEncryption
        Issuer: C = CN, ST = Beijing, L = Beijing, O = person, OU = person, CN = ChengRui, emailAddress = 2411150236@qq.com
        Validity
            Not Before: Aug 28 07:32:27 2018 GMT
            Not After : Jun 17 07:32:27 2021 GMT
        Subject: C = CN, ST = Beijing, L = Beijing, O = person, OU = person, CN = ChengRui, emailAddress = 2411150236@qq.com
        Subject Public Key Info:
            Public Key Algorithm: rsaEncryption
                Public-Key: (2048 bit)
                Modulus:
                    00:d3:8a:51:08:a0:67:81:14:69:e4:ee:45:60:14:
                    08:03:8c:cb:89:6c:ff:2a:5f:31:02:ef:0e:a9:62:
                    88:56:4f:6e:0b:f5:cc:4c:c1:5b:3c:d7:bf:93:88:
                    21:ff:52:01:cd:f6:a7:01:c0:60:84:c4:ca:e7:d3:
                    35:10:b4:30:47:8e:70:b9:ee:c4:d9:6a:3c:25:25:
                    68:dd:55:a3:d9:d3:7e:fb:f1:09:10:20:f1:31:d7:
                    a9:0a:50:f0:cd:28:b1:59:49:a1:22:ed:29:3a:98:
                    d9:50:72:a6:99:e5:74:93:f7:0c:43:61:ba:c0:f1:
                    8c:11:ee:d5:02:6c:83:92:c1:f9:03:fe:c8:73:77:
                    ae:17:07:53:e8:0b:05:67:0e:69:c6:24:4a:06:98:
                    9e:84:3f:5a:00:de:32:30:c6:4d:d0:84:d0:fd:19:
                    c2:2a:a4:19:89:dd:ee:68:4c:6c:8e:88:39:88:56:
                    fa:d5:1c:ba:56:fc:84:87:e2:af:b5:b2:c4:b2:5e:
                    d8:0a:0c:32:d0:f8:01:de:cc:2b:06:21:5a:9d:bb:
                    11:a5:5a:1c:b6:02:aa:7f:f1:fa:27:99:02:d5:8f:
                    d9:94:61:f2:28:25:2a:c1:c5:0d:51:f4:e0:ae:9c:
                    d8:32:36:0d:55:2d:70:8a:1a:e2:e5:b4:a0:df:5b:
                    58:91
                Exponent: 65537 (0x10001)
        X509v3 extensions:
            X509v3 Subject Key Identifier: 
                DB:4C:67:2E:71:EA:D9:36:38:E8:CF:C0:44:D7:04:C5:AA:11:D8:7D
            X509v3 Authority Key Identifier: 
                keyid:DB:4C:67:2E:71:EA:D9:36:38:E8:CF:C0:44:D7:04:C5:AA:11:D8:7D

            X509v3 Basic Constraints: critical
                CA:TRUE
    Signature Algorithm: sha256WithRSAEncryption
         59:f4:a0:5c:dd:e7:5e:e3:67:65:49:e0:6b:70:81:0b:37:9f:
         05:94:9e:ef:64:40:89:4b:f2:2d:94:7c:f9:f5:7f:7b:21:69:
         81:1b:13:be:b3:f1:4b:a9:53:b6:0a:eb:7f:26:b3:70:92:b1:
         5a:be:78:12:79:f0:4a:67:2d:5b:0b:be:7d:df:67:69:54:7c:
         a1:24:81:47:dd:24:72:27:83:9f:91:80:60:d3:92:c1:54:3b:
         3c:83:48:46:27:5e:fb:c7:57:10:ed:54:04:2b:d8:26:f3:87:
         16:6a:33:36:57:51:26:f9:37:dd:62:92:c8:65:d9:bc:f8:e0:
         19:56:be:78:b0:54:31:7b:4c:90:21:5c:2f:6d:1e:66:7b:91:
         45:75:53:61:eb:d7:3f:3c:f7:d8:47:52:bc:47:10:da:e7:9d:
         c2:18:a2:b2:3a:7a:e5:ed:4c:de:2f:3a:bf:82:7f:bd:68:5c:
         dc:3f:e8:0e:d2:a0:9c:90:9f:cd:b1:c4:09:fd:74:18:eb:e8:
         ad:ef:2a:34:9c:40:99:79:76:5b:27:11:56:05:38:69:a6:f5:
         f1:f3:16:46:34:f0:4e:1c:b9:ae:a0:0c:7b:80:e0:9a:64:9d:
         5f:5a:59:29:0b:af:28:9a:55:7d:16:b3:85:a5:9b:3d:18:ca:
         74:5a:9c:13
-----BEGIN CERTIFICATE-----
MIID6DCCAtCgAwIBAgIJAMMS2TIfBThMMA0GCSqGSIb3DQEBCwUAMIGIMQswCQYD
VQQGEwJDTjEQMA4GA1UECAwHQmVpamluZzEQMA4GA1UEBwwHQmVpamluZzEPMA0G
A1UECgwGcGVyc29uMQ8wDQYDVQQLDAZwZXJzb24xETAPBgNVBAMMCENoZW5nUnVp
MSAwHgYJKoZIhvcNAQkBFhEyNDExMTUwMjM2QHFxLmNvbTAeFw0xODA4MjgwNzMy
MjdaFw0yMTA2MTcwNzMyMjdaMIGIMQswCQYDVQQGEwJDTjEQMA4GA1UECAwHQmVp
amluZzEQMA4GA1UEBwwHQmVpamluZzEPMA0GA1UECgwGcGVyc29uMQ8wDQYDVQQL
DAZwZXJzb24xETAPBgNVBAMMCENoZW5nUnVpMSAwHgYJKoZIhvcNAQkBFhEyNDEx
MTUwMjM2QHFxLmNvbTCCASIwDQYJKoZIhvcNAQEBBQADggEPADCCAQoCggEBANOK
UQigZ4EUaeTuRWAUCAOMy4ls/ypfMQLvDqliiFZPbgv1zEzBWzzXv5OIIf9SAc32
pwHAYITEyufTNRC0MEeOcLnuxNlqPCUlaN1Vo9nTfvvxCRAg8THXqQpQ8M0osVlJ
oSLtKTqY2VByppnldJP3DENhusDxjBHu1QJsg5LB+QP+yHN3rhcHU+gLBWcOacYk
SgaYnoQ/WgDeMjDGTdCE0P0ZwiqkGYnd7mhMbI6IOYhW+tUculb8hIfir7WyxLJe
2AoMMtD4Ad7MKwYhWp27EaVaHLYCqn/x+ieZAtWP2ZRh8iglKsHFDVH04K6c2DI2
DVUtcIoa4uW0oN9bWJECAwEAAaNTMFEwHQYDVR0OBBYEFNtMZy5x6tk2OOjPwETX
BMWqEdh9MB8GA1UdIwQYMBaAFNtMZy5x6tk2OOjPwETXBMWqEdh9MA8GA1UdEwEB
/wQFMAMBAf8wDQYJKoZIhvcNAQELBQADggEBAFn0oFzd517jZ2VJ4GtwgQs3nwWU
nu9kQIlL8i2UfPn1f3shaYEbE76z8UupU7YK638ms3CSsVq+eBJ58EpnLVsLvn3f
Z2lUfKEkgUfdJHIng5+RgGDTksFUOzyDSEYnXvvHVxDtVAQr2CbzhxZqMzZXUSb5
N91ikshl2bz44BlWvniwVDF7TJAhXC9tHmZ7kUV1U2Hr1z8899hHUrxHENrnncIY
orI6euXtTN4vOr+Cf71oXNw/6A7SoJyQn82xxAn9dBjr6K3vKjScQJl5dlsnEVYF
OGmm9fHzFkY08E4cua6gDHuA4JpknV9aWSkLryiaVX0Ws4Wlmz0YynRanBM=
-----END CERTIFICATE-----
Certificate:
    Data:
        Version: 1 (0x0)
        Serial Number:
            b2:e1:41:23:31:6e:3f:6f
    Signature Algorithm: sha256WithRSAEncryption
        Issuer: C = CN, ST = SHENZHEN, L = SHENZHEN, O = PERSON, OU = PERSON, CN = chengrui, emailAddress = 2411150236@qq.com
        Validity
            Not Before: Sep 11 04:37:21 2018 GMT
            Not After : Sep 11 04:37:21 2019 GMT
        Subject: C = CN, ST = SHENZHEN, L = SHENZHEN, O = PERSON, OU = PERSON, CN = chengrui, emailAddress = 2411150236@qq.com
        Subject Public Key Info:
            Public Key Algorithm: rsaEncryption
                Public-Key: (4096 bit)
                Modulus:
                    00:b4:a3:c1:32:21:65:4b:3f:f9:ba:67:64:fe:81:
                    96:80:9f:70:4b:97:f0:6a:11:05:bb:d0:5e:9f:27:
                    03:2a:59:07:6b:2c:e1:5f:a6:ce:52:4b:b6:38:ad:
                    76:b4:ea:aa:28:63:4d:d3:99:9b:5e:c2:28:86:20:
                    d7:33:6a:59:31:e5:db:51:09:db:c4:07:09:83:15:
                    7a:82:ae:d3:ab:2a:ba:11:1a:8f:5c:36:7d:ac:13:
                    72:62:29:5c:c2:1a:b3:17:dd:ee:aa:0c:e7:b2:95:
                    2d:f1:9e:b3:bb:07:83:18:13:c3:4d:87:8d:d0:b4:
                    de:47:22:b1:b2:bb:0f:b5:46:d2:8a:23:c9:86:d5:
                    c1:95:81:72:71:4e:cd:cb:f0:c2:c9:60:29:ab:68:
                    e6:7c:d5:62:57:07:a4:68:ad:b1:33:66:a0:7c:f1:
                    2c:fe:06:2f:ed:84:e1:60:64:f4:7d:1b:81:bb:c7:
                    0c:fb:7b:69:64:ab:ac:76:d4:61:49:ad:ab:01:d2:
                    94:f1:29:3e:7a:c4:75:f2:d1:b1:3f:6b:8e:8e:d9:
                    f0:3c:88:50:d8:58:6b:ed:d6:93:83:07:f8:db:af:
                    f3:f8:31:6c:f7:74:aa:f6:fc:14:aa:33:ed:eb:bc:
                    33:1a:a9:0e:13:9d:0c:1f:f7:f2:b1:ce:3c:87:cf:
                    b6:0d:0a:96:8e:28:f6:75:89:d6:5a:c5:b8:3a:7b:
                    cc:61:82:a0:a7:aa:13:ef:5f:62:83:65:45:70:f9:
                    b3:63:0e:19:c7:4a:e3:9e:c3:38:9c:ea:29:e5:c5:
                    ba:c7:d1:a9:53:14:da:20:44:d1:25:7e:03:03:6d:
                    40:7e:08:dd:7f:93:3b:70:d3:2a:88:c0:a6:37:7b:
                    d6:8f:6b:f7:f1:b9:ca:bd:3c:62:4d:b0:11:e9:2f:
                    58:d3:49:d3:85:ac:e7:c0:f8:41:a7:ad:04:03:51:
                    ca:1d:23:a5:84:38:2b:b7:91:9b:ef:d8:c9:ab:a5:
                    d7:56:54:b6:29:96:be:71:dd:43:a5:af:c4:59:c5:
                    bd:41:23:d5:c4:92:2c:ae:9c:5c:6a:4e:c0:b3:f4:
                    58:d0:8c:00:c3:04:f6:8f:33:e6:68:d9:96:1d:9d:
                    35:17:d4:3b:b2:44:d7:b2:07:f1:a4:25:ec:69:8d:
                    57:3c:b7:95:4b:ff:e8:18:7e:4f:66:48:c2:b0:75:
                    e5:23:3e:1c:0f:7a:ce:e5:0d:ad:c7:97:9e:f4:56:
                    8b:35:2d:15:9a:50:fc:43:77:fb:0e:08:97:a8:85:
                    a6:5a:2d:ae:29:10:21:00:79:e6:83:36:79:88:44:
                    5c:09:30:b5:f3:98:a4:49:7e:d7:8f:48:eb:05:b6:
                    42:8d:c7
                Exponent: 65537 (0x10001)
    Signature Algorithm: sha256WithRSAEncryption
         2f:12:f4:7e:c4:15:3f:be:4a:95:05:ad:50:89:57:b9:c2:1d:
         59:f0:68:28:ac:34:b3:d8:4c:67:2b:ea:95:b4:3e:7d:61:9f:
         a8:c7:89:bc:db:08:99:93:5d:dd:10:fe:30:13:6c:f3:c3:d9:
         b5:93:5d:b6:9c:cd:37:13:76:a8:55:f4:c1:01:a0:5b:ee:e5:
         54:5f:8e:21:20:9b:e1:62:ad:3f:6b:1b:9e:7a:70:69:1a:fa:
         d6:99:e9:87:fd:fd:6c:ad:82:13:54:a7:07:ab:2f:26:b0:dc:
         0e:02:4b:8b:56:f9:42:78:07:df:1d:02:fb:be:ac:41:b5:00:
         23:8c:56:f0:a0:e0:7e:96:1e:fe:43:37:68:3e:6b:0b:27:97:
         74:61:e9:b9:bb:a8:90:55:46:87:a5:3d:e1:37:7c:b9:9c:09:
         88:e4:64:53:53:8f:28:c4:09:47:90:8a:57:0f:3b:66:ee:c2:
         fa:fd:ec:86:14:ce:d2:6c:90:f2:2d:72:4d:8d:8c:27:e9:4f:
         ad:5d:57:5e:24:39:59:ae:63:35:ea:30:3d:38:5d:d4:f7:44:
         17:e9:8b:cd:69:f4:9e:1e:7c:35:9c:7e:c0:2a:19:d2:7b:87:
         1c:69:14:41:5c:2b:65:40:f6:d0:22:b6:14:23:c0:43:e5:29:
         e8:12:3b:be:93:a4:55:73:aa:c0:78:d2:8c:d8:11:1c:c2:92:
         e6:72:1b:2d:6f:ef:ed:9c:51:b0:62:dd:69:24:65:d6:11:b2:
         68:50:18:11:fe:e6:86:92:34:52:5e:36:8b:96:ec:ed:a2:2b:
         1a:c1:dc:a4:49:3f:14:03:0c:0e:99:54:57:b2:db:2f:a7:cb:
         85:d6:91:2a:a4:0b:ff:36:ee:bb:2b:5a:3f:94:73:4d:f7:98:
         ec:7b:6c:93:ae:01:e1:8e:11:3d:a5:82:13:70:c9:b1:11:02:
         5c:4a:3b:32:d5:32:c7:47:2b:67:5a:e4:46:46:95:6b:a6:24:
         96:1a:56:88:d4:d8:80:88:f5:72:05:75:aa:4b:74:0e:cd:c1:
         2e:e8:64:44:92:1c:1c:06:5c:5c:ed:f8:13:b3:9a:aa:a2:e1:
         f9:a0:7a:35:71:44:39:60:da:d6:4f:9c:55:63:69:51:d4:a6:
         91:4c:70:b5:cf:f6:c5:9d:b2:96:da:fa:94:2a:fc:06:ab:17:
         b1:30:54:d9:67:5a:aa:ac:bb:e2:7c:8c:b6:b1:5d:6a:d4:0e:
         36:e0:f6:b9:54:10:d4:18:c7:43:af:b5:32:d9:87:d7:5a:2d:
         16:fe:9f:f0:9d:fb:64:ed:fc:94:ec:ab:3c:cd:60:95:ef:08:
         be:a1:50:53:f7:92:a3:5c
-----BEGIN CERTIFICATE-----
MIIFkjCCA3oCCQCy4UEjMW4/bzANBgkqhkiG9w0BAQsFADCBijELMAkGA1UEBhMC
Q04xETAPBgNVBAgMCFNIRU5aSEVOMREwDwYDVQQHDAhTSEVOWkhFTjEPMA0GA1UE
CgwGUEVSU09OMQ8wDQYDVQQLDAZQRVJTT04xETAPBgNVBAMMCGNoZW5ncnVpMSAw
HgYJKoZIhvcNAQkBFhEyNDExMTUwMjM2QHFxLmNvbTAeFw0xODA5MTEwNDM3MjFa
Fw0xOTA5MTEwNDM3MjFaMIGKMQswCQYDVQQGEwJDTjERMA8GA1UECAwIU0hFTlpI
RU4xETAPBgNVBAcMCFNIRU5aSEVOMQ8wDQYDVQQKDAZQRVJTT04xDzANBgNVBAsM
BlBFUlNPTjERMA8GA1UEAwwIY2hlbmdydWkxIDAeBgkqhkiG9w0BCQEWETI0MTEx
NTAyMzZAcXEuY29tMIICIjANBgkqhkiG9w0BAQEFAAOCAg8AMIICCgKCAgEAtKPB
MiFlSz/5umdk/oGWgJ9wS5fwahEFu9BenycDKlkHayzhX6bOUku2OK12tOqqKGNN
05mbXsIohiDXM2pZMeXbUQnbxAcJgxV6gq7Tqyq6ERqPXDZ9rBNyYilcwhqzF93u
qgznspUt8Z6zuweDGBPDTYeN0LTeRyKxsrsPtUbSiiPJhtXBlYFycU7Ny/DCyWAp
q2jmfNViVwekaK2xM2agfPEs/gYv7YThYGT0fRuBu8cM+3tpZKusdtRhSa2rAdKU
8Sk+esR18tGxP2uOjtnwPIhQ2Fhr7daTgwf426/z+DFs93Sq9vwUqjPt67wzGqkO
E50MH/fysc48h8+2DQqWjij2dYnWWsW4OnvMYYKgp6oT719ig2VFcPmzYw4Zx0rj
nsM4nOop5cW6x9GpUxTaIETRJX4DA21Afgjdf5M7cNMqiMCmN3vWj2v38bnKvTxi
TbAR6S9Y00nThaznwPhBp60EA1HKHSOlhDgrt5Gb79jJq6XXVlS2KZa+cd1Dpa/E
WcW9QSPVxJIsrpxcak7As/RY0IwAwwT2jzPmaNmWHZ01F9Q7skTXsgfxpCXsaY1X
PLeVS//oGH5PZkjCsHXlIz4cD3rO5Q2tx5ee9FaLNS0VmlD8Q3f7DgiXqIWmWi2u
KRAhAHnmgzZ5iERcCTC185ikSX7Xj0jrBbZCjccCAwEAATANBgkqhkiG9w0BAQsF
AAOCAgEALxL0fsQVP75KlQWtUIlXucIdWfBoKKw0s9hMZyvqlbQ+fWGfqMeJvNsI
mZNd3RD+MBNs88PZtZNdtpzNNxN2qFX0wQGgW+7lVF+OISCb4WKtP2sbnnpwaRr6
1pnph/39bK2CE1SnB6svJrDcDgJLi1b5QngH3x0C+76sQbUAI4xW8KDgfpYe/kM3
aD5rCyeXdGHpubuokFVGh6U94Td8uZwJiORkU1OPKMQJR5CKVw87Zu7C+v3shhTO
0myQ8i1yTY2MJ+lPrV1XXiQ5Wa5jNeowPThd1PdEF+mLzWn0nh58NZx+wCoZ0nuH
HGkUQVwrZUD20CK2FCPAQ+Up6BI7vpOkVXOqwHjSjNgRHMKS5nIbLW/v7ZxRsGLd
aSRl1hGyaFAYEf7mhpI0Ul42i5bs7aIrGsHcpEk/FAMMDplUV7LbL6fLhdaRKqQL
/zbuuytaP5RzTfeY7Htsk64B4Y4RPaWCE3DJsRECXEo7MtUyx0crZ1rkRkaVa6Yk
lhpWiNTYgIj1cgV1qkt0Ds3BLuhkRJIcHAZcXO34E7OaqqLh+aB6NXFEOWDa1k+c
VWNpUdSmkUxwtc/2xZ2yltr6lCr8BqsXsTBU2Wdaqqy74nyMtrFdatQONuD2uVQQ
1BjHQ6+1MtmH11otFv6f8J37ZO38lOyrPM1gle8IvqFQU/eSo1w=
-----END CERTIFICATE-----
Certificate:
    Data:
        Version: 1 (0x0)
        Serial Number:
            eb:ca:d7:b4:85:e8:9c:e2
    Signature Algorithm: sha256WithRSAEncryption
        Issuer: C = OT, ST = OT, L = OT, O = OT, OU = OT, CN = OT, emailAddress = 2411150236@qq.com
        Validity
            Not Before: Sep 11 08:59:54 2018 GMT
            Not After : Sep 11 08:59:54 2019 GMT
        Subject: C = OT, ST = OT, L = OT, O = OT, OU = OT, CN = OT, emailAddress = 2411150236@qq.com
        Subject Public Key Info:
            Public Key Algorithm: rsaEncryption
                Public-Key: (4096 bit)
                Modulus:
                    00:d5:ee:20:75:9f:89:62:68:9b:0a:ba:67:ae:6a:
                    24:a2:e0:ca:23:c6:d7:dd:2e:29:73:7e:c1:9d:b8:
                    3f:f3:f8:ec:bd:73:94:17:41:24:39:05:55:18:96:
                    45:02:fd:d9:67:ef:02:15:56:b9:16:b4:21:bc:a1:
                    d5:33:67:5b:69:9a:8b:ac:77:b4:e7:f8:8a:94:fe:
                    9c:9b:33:2c:db:82:37:25:45:01:fe:de:be:90:03:
                    97:f8:4c:b4:45:c1:8c:43:73:c7:47:48:04:cd:1f:
                    63:54:4d:0d:10:ff:b5:51:99:09:13:dd:44:11:0e:
                    6e:7a:6a:4c:e4:61:1d:68:cd:06:db:02:e2:d2:78:
                    60:82:e3:32:c9:6b:01:51:17:9f:33:cf:e8:78:15:
                    39:11:d8:3e:4b:85:b4:6b:99:a9:5a:34:33:e6:fc:
                    74:81:99:95:e9:98:05:63:37:33:aa:a3:41:49:c6:
                    85:f0:77:ec:f5:09:ed:ea:54:35:a1:66:22:64:ae:
                    11:c3:f0:5c:6e:9e:a5:58:2e:f5:10:dd:c7:b2:49:
                    3a:e9:4b:e1:82:e6:83:ca:64:3e:f9:f0:7f:ca:da:
                    b3:c2:b1:89:a7:7a:ff:54:4a:9f:c3:62:78:58:ae:
                    4d:22:05:44:4d:e3:85:4e:43:38:fd:90:6d:24:af:
                    95:1f:5a:6c:05:d8:ea:80:c3:ed:7e:fa:d9:56:e8:
                    13:59:51:1f:11:35:f4:5c:6e:17:de:7d:54:8d:14:
                    62:e1:f4:3e:e6:19:0c:dc:b5:a3:77:0b:e2:78:58:
                    66:2d:2f:cb:87:85:c9:b4:f3:26:07:92:63:2c:9c:
                    5b:3b:5c:0f:73:51:91:57:b2:f5:85:fe:97:b1:1c:
                    0b:4e:4e:9a:af:ed:d7:af:42:a2:72:5f:f8:20:73:
                    65:e9:3c:3c:56:dd:ee:64:3a:9b:2f:e8:cc:ba:e6:
                    35:76:c7:be:19:29:f8:84:c2:da:cb:dd:97:c3:78:
                    1c:cb:b9:5f:c2:74:f7:33:f4:44:e0:2d:1d:11:b1:
                    eb:1f:c9:52:c3:cd:17:22:9a:98:55:0e:76:a5:b3:
                    f2:a4:92:ba:79:5b:d1:c6:45:ba:d6:e3:ac:68:34:
                    06:11:e0:0a:c4:ff:23:35:97:50:07:06:31:45:87:
                    8f:32:81:09:f0:83:80:36:df:8e:08:1a:79:af:73:
                    d6:d8:cf:d0:77:bd:3f:b4:f1:48:97:39:a9:9a:79:
                    35:93:1a:04:f4:a2:e1:c1:c0:45:69:18:bd:05:c3:
                    87:11:ef:e3:b0:5d:7e:42:97:e7:b2:e1:ce:cf:4b:
                    ac:91:69:39:4f:a4:c3:11:6e:a9:32:1c:78:38:5b:
                    ab:0d:ad
                Exponent: 65537 (0x10001)
    Signature Algorithm: sha256WithRSAEncryption
         7c:ff:31:c5:eb:38:c4:e2:e9:5e:de:40:67:7c:d0:6c:60:02:
         73:f1:08:df:ff:bc:56:e0:ae:b1:7b:f6:3b:76:ce:56:d3:10:
         46:0e:f8:6b:80:b8:22:e9:7b:55:67:34:cc:ac:38:13:e8:26:
         7f:c7:2b:07:99:39:c7:ef:76:b9:eb:ff:4e:f1:34:4c:20:6e:
         85:53:15:86:e4:59:f8:3e:a5:8d:bc:56:10:78:23:4f:cd:d8:
         48:b6:6a:42:09:71:86:ba:78:dc:bb:56:e5:49:91:b5:29:bc:
         61:74:a2:5a:f5:97:5b:0c:17:3a:d3:08:b9:d5:42:33:62:7b:
         aa:6d:35:dc:cd:c6:56:14:c6:ad:60:d4:17:ad:c2:f9:ce:6e:
         9e:ba:cc:d4:e0:90:db:a5:9c:1c:de:91:3b:31:0f:5d:fc:48:
         63:29:eb:92:9d:95:89:62:18:88:41:ed:40:30:e7:81:20:23:
         69:d2:f0:7b:89:6a:d9:7e:e6:f7:42:c6:fc:a2:36:90:ea:c7:
         da:6a:39:21:f4:77:20:fa:78:42:5b:58:0b:e0:f1:10:8a:9f:
         80:03:3d:be:3f:89:49:9e:10:0f:c0:5a:e8:6d:02:d0:2e:18:
         2e:dd:6b:ab:82:d3:7d:e0:cf:12:53:f9:fc:84:da:84:ae:00:
         ed:cf:d6:7f:f0:ec:94:5f:80:c9:40:fc:7d:91:6c:95:b7:2a:
         22:29:28:1f:82:f8:49:6f:2a:60:af:ef:a9:fa:a1:77:32:49:
         ff:c8:9c:f5:a0:54:cd:e8:2d:8e:3a:9b:79:82:5f:0d:a1:1c:
         71:97:23:11:3e:a6:af:d1:ba:72:62:95:0c:7f:2c:a7:b8:d8:
         56:fe:f2:47:18:e8:0a:a9:87:f4:f4:20:c2:78:db:cc:0d:d9:
         dd:71:f5:e1:7a:70:38:a1:a4:8a:33:d5:b4:10:fa:0d:26:a1:
         db:44:6a:79:e8:ae:f0:95:44:7e:07:7d:8f:6b:2f:b6:cd:be:
         f2:75:c2:23:c3:73:d8:04:f1:39:6a:79:00:e6:32:13:2b:09:
         e2:f1:e6:24:fa:48:d6:04:6f:80:4d:e3:c9:aa:7f:81:b2:10:
         db:1f:c5:ad:bc:af:3a:f3:48:94:a4:d8:9a:6c:7f:d7:3c:0e:
         43:a0:12:9c:8e:e0:7f:b3:2e:1f:ba:48:ff:42:0a:d8:86:02:
         30:92:5a:f3:f6:9f:4b:9d:49:cf:c0:14:f1:1f:f5:7d:55:ef:
         04:a7:35:ee:a3:ca:1e:d6:59:d3:86:21:dc:31:6c:82:79:9b:
         fc:67:44:4f:e1:2d:00:93:b5:a1:72:6c:c2:ac:0d:52:cf:b5:
         48:13:e9:2c:3c:b0:bb:07
-----BEGIN CERTIFICATE-----
MIIFXDCCA0QCCQDryte0heic4jANBgkqhkiG9w0BAQsFADBwMQswCQYDVQQGEwJP
VDELMAkGA1UECAwCT1QxCzAJBgNVBAcMAk9UMQswCQYDVQQKDAJPVDELMAkGA1UE
CwwCT1QxCzAJBgNVBAMMAk9UMSAwHgYJKoZIhvcNAQkBFhEyNDExMTUwMjM2QHFx
LmNvbTAeFw0xODA5MTEwODU5NTRaFw0xOTA5MTEwODU5NTRaMHAxCzAJBgNVBAYT
Ak9UMQswCQYDVQQIDAJPVDELMAkGA1UEBwwCT1QxCzAJBgNVBAoMAk9UMQswCQYD
VQQLDAJPVDELMAkGA1UEAwwCT1QxIDAeBgkqhkiG9w0BCQEWETI0MTExNTAyMzZA
cXEuY29tMIICIjANBgkqhkiG9w0BAQEFAAOCAg8AMIICCgKCAgEA1e4gdZ+JYmib
CrpnrmokouDKI8bX3S4pc37Bnbg/8/jsvXOUF0EkOQVVGJZFAv3ZZ+8CFVa5FrQh
vKHVM2dbaZqLrHe05/iKlP6cmzMs24I3JUUB/t6+kAOX+Ey0RcGMQ3PHR0gEzR9j
VE0NEP+1UZkJE91EEQ5uempM5GEdaM0G2wLi0nhgguMyyWsBURefM8/oeBU5Edg+
S4W0a5mpWjQz5vx0gZmV6ZgFYzczqqNBScaF8Hfs9Qnt6lQ1oWYiZK4Rw/Bcbp6l
WC71EN3Hskk66UvhguaDymQ++fB/ytqzwrGJp3r/VEqfw2J4WK5NIgVETeOFTkM4
/ZBtJK+VH1psBdjqgMPtfvrZVugTWVEfETX0XG4X3n1UjRRi4fQ+5hkM3LWjdwvi
eFhmLS/Lh4XJtPMmB5JjLJxbO1wPc1GRV7L1hf6XsRwLTk6ar+3Xr0Kicl/4IHNl
6Tw8Vt3uZDqbL+jMuuY1dse+GSn4hMLay92Xw3gcy7lfwnT3M/RE4C0dEbHrH8lS
w80XIpqYVQ52pbPypJK6eVvRxkW61uOsaDQGEeAKxP8jNZdQBwYxRYePMoEJ8IOA
Nt+OCBp5r3PW2M/Qd70/tPFIlzmpmnk1kxoE9KLhwcBFaRi9BcOHEe/jsF1+Qpfn
suHOz0uskWk5T6TDEW6pMhx4OFurDa0CAwEAATANBgkqhkiG9w0BAQsFAAOCAgEA
fP8xxes4xOLpXt5AZ3zQbGACc/EI3/+8VuCusXv2O3bOVtMQRg74a4C4Iul7VWc0
zKw4E+gmf8crB5k5x+92uev/TvE0TCBuhVMVhuRZ+D6ljbxWEHgjT83YSLZqQglx
hrp43LtW5UmRtSm8YXSiWvWXWwwXOtMIudVCM2J7qm013M3GVhTGrWDUF63C+c5u
nrrM1OCQ26WcHN6ROzEPXfxIYynrkp2ViWIYiEHtQDDngSAjadLwe4lq2X7m90LG
/KI2kOrH2mo5IfR3IPp4QltYC+DxEIqfgAM9vj+JSZ4QD8Ba6G0C0C4YLt1rq4LT
feDPElP5/ITahK4A7c/Wf/DslF+AyUD8fZFslbcqIikoH4L4SW8qYK/vqfqhdzJJ
/8ic9aBUzegtjjqbeYJfDaEccZcjET6mr9G6cmKVDH8sp7jYVv7yRxjoCqmH9PQg
wnjbzA3Z3XH14XpwOKGkijPVtBD6DSah20Rqeeiu8JVEfgd9j2svts2+8nXCI8Nz
2ATxOWp5AOYyEysJ4vHmJPpI1gRvgE3jyap/gbIQ2x/FrbyvOvNIlKTYmmx/1zwO
Q6ASnI7gf7MuH7pI/0IK2IYCMJJa8/afS51Jz8AU8R/1fVXvBKc17qPKHtZZ04Yh
3DFsgnmb/GdET+EtAJO1oXJswqwNUs+1SBPpLDywuwc=
-----END CERTIFICATE-----
